V/* line 1 */\u000abody {\u000a  color: steelblue;\u000a}\u000a\u000a/* line 4 */\u000a#banner {\u000a  background-color: black;\u000a}\u000a/* line 6 */\u000a#banner p {\u000a  color: white;\u000a  font-size: 90px;\u000a  margin: 0px;\u000a  vertical-align: text-bottom;\u000a  padding: 2px 0px 2px 0px;\u000a}\u000a
p1
.